target datalayout = "e-m:e-p270:32:32-p271:32:32-p272:64:64-i64:64-i128:128-f80:128-n8:16:32:64-S128"
target triple = "x86_64-pc-linux-gnu"

%struct.FFIOContext = type { %struct.AVIOContext, ptr, i32, i32, i64, i64, i64, i64, i32, i32, i32, i64 }
%struct.AVIOContext = type { ptr, ptr, i32, ptr, ptr, ptr, ptr, ptr, ptr, i64, i32, i32, i32, i32, i32, i64, ptr, ptr, ptr, ptr, i32, i32, ptr, ptr, ptr, i32, ptr, i64, i64 }

; Function Attrs: alwaysinline nounwind uwtable
define internal ptr @ffiocontext(ptr noundef %0) #5 {
  %2 = alloca ptr, align 8
  store ptr %0, ptr %2, align 8, !tbaa !14
  %3 = load ptr, ptr %2, align 8, !tbaa !14
  ret ptr %3
}

; Function Attrs: nounwind uwtable
define internal void @writeout(ptr noundef %0, ptr noundef %1, i32 noundef %2) #0 {
  %4 = alloca ptr, align 8
  %5 = alloca ptr, align 8
  %6 = alloca i32, align 4
  %7 = alloca ptr, align 8
  %8 = alloca i32, align 4
  store ptr %0, ptr %4, align 8, !tbaa !14
  store ptr %1, ptr %5, align 8, !tbaa !9
  store i32 %2, ptr %6, align 4, !tbaa !11
  call void @llvm.lifetime.start.p0(i64 8, ptr %7) #12
  %9 = load ptr, ptr %4, align 8, !tbaa !14
  %10 = call ptr @ffiocontext(ptr noundef %9)
  store ptr %10, ptr %7, align 8, !tbaa !4
  %11 = load ptr, ptr %4, align 8, !tbaa !14
  %12 = getelementptr inbounds nuw %struct.AVIOContext, ptr %11, i32 0, i32 11
  %13 = load i32, ptr %12, align 4, !tbaa !32
  %14 = icmp ne i32 %13, 0
  br i1 %14, label %92, label %15

15:                                               ; preds = %3
  call void @llvm.lifetime.start.p0(i64 4, ptr %8) #12
  store i32 0, ptr %8, align 4, !tbaa !11
  %16 = load ptr, ptr %4, align 8, !tbaa !14
  %17 = getelementptr inbounds nuw %struct.AVIOContext, ptr %16, i32 0, i32 24
  %18 = load ptr, ptr %17, align 8, !tbaa !41
  %19 = icmp ne ptr %18, null
  br i1 %19, label %20, label %36

20:                                               ; preds = %15
  %21 = load ptr, ptr %4, align 8, !tbaa !14
  %22 = getelementptr inbounds nuw %struct.AVIOContext, ptr %21, i32 0, i32 24
  %23 = load ptr, ptr %22, align 8, !tbaa !41
  %24 = load ptr, ptr %4, align 8, !tbaa !14
  %25 = getelementptr inbounds nuw %struct.AVIOContext, ptr %24, i32 0, i32 5
  %26 = load ptr, ptr %25, align 8, !tbaa !25
  %27 = load ptr, ptr %5, align 8, !tbaa !9
  %28 = load i32, ptr %6, align 4, !tbaa !11
  %29 = load ptr, ptr %7, align 8, !tbaa !4
  %30 = getelementptr inbounds nuw %struct.FFIOContext, ptr %29, i32 0, i32 3
  %31 = load i32, ptr %30, align 4, !tbaa !43
  %32 = load ptr, ptr %7, align 8, !tbaa !4
  %33 = getelementptr inbounds nuw %struct.FFIOContext, ptr %32, i32 0, i32 4
  %34 = load i64, ptr %33, align 8, !tbaa !44
  %35 = call i32 %23(ptr noundef %26, ptr noundef %27, i32 noundef %28, i32 noundef %31, i64 noundef %34)
  store i32 %35, ptr %8, align 4, !tbaa !11
  br label %52

36:                                               ; preds = %15
  %37 = load ptr, ptr %4, align 8, !tbaa !14
  %38 = getelementptr inbounds nuw %struct.AVIOContext, ptr %37, i32 0, i32 7
  %39 = load ptr, ptr %38, align 8, !tbaa !27
  %40 = icmp ne ptr %39, null
  br i1 %40, label %41, label %51

41:                                               ; preds = %36
  %42 = load ptr, ptr %4, align 8, !tbaa !14
  %43 = getelementptr inbounds nuw %struct.AVIOContext, ptr %42, i32 0, i32 7
  %44 = load ptr, ptr %43, align 8, !tbaa !27
  %45 = load ptr, ptr %4, align 8, !tbaa !14
  %46 = getelementptr inbounds nuw %struct.AVIOContext, ptr %45, i32 0, i32 5
  %47 = load ptr, ptr %46, align 8, !tbaa !25
  %48 = load ptr, ptr %5, align 8, !tbaa !9
  %49 = load i32, ptr %6, align 4, !tbaa !11
  %50 = call i32 %44(ptr noundef %47, ptr noundef %48, i32 noundef %49)
  store i32 %50, ptr %8, align 4, !tbaa !11
  br label %51

51:                                               ; preds = %41, %36
  br label %52

52:                                               ; preds = %51, %20
  %53 = load i32, ptr %8, align 4, !tbaa !11
  %54 = icmp slt i32 %53, 0
  br i1 %54, label %55, label %59

55:                                               ; preds = %52
  %56 = load i32, ptr %8, align 4, !tbaa !11
  %57 = load ptr, ptr %4, align 8, !tbaa !14
  %58 = getelementptr inbounds nuw %struct.AVIOContext, ptr %57, i32 0, i32 11
  store i32 %56, ptr %58, align 4, !tbaa !32
  br label %91

59:                                               ; preds = %52
  %60 = load i32, ptr %6, align 4, !tbaa !11
  %61 = sext i32 %60 to i64
  %62 = load ptr, ptr %7, align 8, !tbaa !4
  %63 = getelementptr inbounds nuw %struct.FFIOContext, ptr %62, i32 0, i32 7
  %64 = load i64, ptr %63, align 8, !tbaa !57
  %65 = add nsw i64 %64, %61
  store i64 %65, ptr %63, align 8, !tbaa !57
  %66 = load ptr, ptr %7, align 8, !tbaa !4
  %67 = getelementptr inbounds nuw %struct.FFIOContext, ptr %66, i32 0, i32 7
  %68 = load i64, ptr %67, align 8, !tbaa !57
  %69 = load ptr, ptr %4, align 8, !tbaa !14
  %70 = getelementptr inbounds nuw %struct.AVIOContext, ptr %69, i32 0, i32 28
  store i64 %68, ptr %70, align 8, !tbaa !58
  %71 = load ptr, ptr %4, align 8, !tbaa !14
  %72 = getelementptr inbounds nuw %struct.AVIOContext, ptr %71, i32 0, i32 9
  %73 = load i64, ptr %72, align 8, !tbaa !30
  %74 = load i32, ptr %6, align 4, !tbaa !11
  %75 = sext i32 %74 to i64
  %76 = add nsw i64 %73, %75
  %77 = load ptr, ptr %7, align 8, !tbaa !4
  %78 = getelementptr inbounds nuw %struct.FFIOContext, ptr %77, i32 0, i32 11
  %79 = load i64, ptr %78, align 8, !tbaa !59
  %80 = icmp sgt i64 %76, %79
  br i1 %80, label %81, label %90

81:                                               ; preds = %59
  %82 = load ptr, ptr %4, align 8, !tbaa !14
  %83 = getelementptr inbounds nuw %struct.AVIOContext, ptr %82, i32 0, i32 9
  %84 = load i64, ptr %83, align 8, !tbaa !30
  %85 = load i32, ptr %6, align 4, !tbaa !11
  %86 = sext i32 %85 to i64
  %87 = add nsw i64 %84, %86
  %88 = load ptr, ptr %7, align 8, !tbaa !4
  %89 = getelementptr inbounds nuw %struct.FFIOContext, ptr %88, i32 0, i32 11
  store i64 %87, ptr %89, align 8, !tbaa !59
  br label %90

90:                                               ; preds = %81, %59
  br label %91

91:                                               ; preds = %90, %55
  call void @llvm.lifetime.end.p0(i64 4, ptr %8) #12
  br label %92

92:                                               ; preds = %91, %3
  %93 = load ptr, ptr %7, align 8, !tbaa !4
  %94 = getelementptr inbounds nuw %struct.FFIOContext, ptr %93, i32 0, i32 3
  %95 = load i32, ptr %94, align 4, !tbaa !43
  %96 = icmp eq i32 %95, 1
  br i1 %96, label %102, label %97

97:                                               ; preds = %92
  %98 = load ptr, ptr %7, align 8, !tbaa !4
  %99 = getelementptr inbounds nuw %struct.FFIOContext, ptr %98, i32 0, i32 3
  %100 = load i32, ptr %99, align 4, !tbaa !43
  %101 = icmp eq i32 %100, 2
  br i1 %101, label %102, label %105

102:                                              ; preds = %97, %92
  %103 = load ptr, ptr %7, align 8, !tbaa !4
  %104 = getelementptr inbounds nuw %struct.FFIOContext, ptr %103, i32 0, i32 3
  store i32 3, ptr %104, align 4, !tbaa !43
  br label %105

105:                                              ; preds = %102, %97
  %106 = load ptr, ptr %7, align 8, !tbaa !4
  %107 = getelementptr inbounds nuw %struct.FFIOContext, ptr %106, i32 0, i32 4
  store i64 -9223372036854775808, ptr %107, align 8, !tbaa !44
  %108 = load ptr, ptr %7, align 8, !tbaa !4
  %109 = getelementptr inbounds nuw %struct.FFIOContext, ptr %108, i32 0, i32 9
  %110 = load i32, ptr %109, align 4, !tbaa !60
  %111 = add nsw i32 %110, 1
  store i32 %111, ptr %109, align 4, !tbaa !60
  %112 = load i32, ptr %6, align 4, !tbaa !11
  %113 = sext i32 %112 to i64
  %114 = load ptr, ptr %4, align 8, !tbaa !14
  %115 = getelementptr inbounds nuw %struct.AVIOContext, ptr %114, i32 0, i32 9
  %116 = load i64, ptr %115, align 8, !tbaa !30
  %117 = add nsw i64 %116, %113
  store i64 %117, ptr %115, align 8, !tbaa !30
  call void @llvm.lifetime.end.p0(i64 8, ptr %7) #12
  ret void
}

; Function Attrs: nounwind uwtable
define internal void @flush_buffer(ptr noundef %0) #0 {
  %2 = alloca ptr, align 8
  store ptr %0, ptr %2, align 8, !tbaa !14
  %3 = load ptr, ptr %2, align 8, !tbaa !14
  %4 = getelementptr inbounds nuw %struct.AVIOContext, ptr %3, i32 0, i32 3
  %5 = load ptr, ptr %4, align 8, !tbaa !23
  %6 = load ptr, ptr %2, align 8, !tbaa !14
  %7 = getelementptr inbounds nuw %struct.AVIOContext, ptr %6, i32 0, i32 26
  %8 = load ptr, ptr %7, align 8, !tbaa !24
  %9 = icmp ugt ptr %5, %8
  br i1 %9, label %10, label %14

10:                                               ; preds = %1
  %11 = load ptr, ptr %2, align 8, !tbaa !14
  %12 = getelementptr inbounds nuw %struct.AVIOContext, ptr %11, i32 0, i32 3
  %13 = load ptr, ptr %12, align 8, !tbaa !23
  br label %18

14:                                               ; preds = %1
  %15 = load ptr, ptr %2, align 8, !tbaa !14
  %16 = getelementptr inbounds nuw %struct.AVIOContext, ptr %15, i32 0, i32 26
  %17 = load ptr, ptr %16, align 8, !tbaa !24
  br label %18

18:                                               ; preds = %14, %10
  %19 = phi ptr [ %13, %10 ], [ %17, %14 ]
  %20 = load ptr, ptr %2, align 8, !tbaa !14
  %21 = getelementptr inbounds nuw %struct.AVIOContext, ptr %20, i32 0, i32 26
  store ptr %19, ptr %21, align 8, !tbaa !24
  %22 = load ptr, ptr %2, align 8, !tbaa !14
  %23 = getelementptr inbounds nuw %struct.AVIOContext, ptr %22, i32 0, i32 12
  %24 = load i32, ptr %23, align 8, !tbaa !46
  %25 = icmp ne i32 %24, 0
  br i1 %25, label %26, label %82

26:                                               ; preds = %18
  %27 = load ptr, ptr %2, align 8, !tbaa !14
  %28 = getelementptr inbounds nuw %struct.AVIOContext, ptr %27, i32 0, i32 26
  %29 = load ptr, ptr %28, align 8, !tbaa !24
  %30 = load ptr, ptr %2, align 8, !tbaa !14
  %31 = getelementptr inbounds nuw %struct.AVIOContext, ptr %30, i32 0, i32 1
  %32 = load ptr, ptr %31, align 8, !tbaa !16
  %33 = icmp ugt ptr %29, %32
  br i1 %33, label %34, label %82

34:                                               ; preds = %26
  %35 = load ptr, ptr %2, align 8, !tbaa !14
  %36 = load ptr, ptr %2, align 8, !tbaa !14
  %37 = getelementptr inbounds nuw %struct.AVIOContext, ptr %36, i32 0, i32 1
  %38 = load ptr, ptr %37, align 8, !tbaa !16
  %39 = load ptr, ptr %2, align 8, !tbaa !14
  %40 = getelementptr inbounds nuw %struct.AVIOContext, ptr %39, i32 0, i32 26
  %41 = load ptr, ptr %40, align 8, !tbaa !24
  %42 = load ptr, ptr %2, align 8, !tbaa !14
  %43 = getelementptr inbounds nuw %struct.AVIOContext, ptr %42, i32 0, i32 1
  %44 = load ptr, ptr %43, align 8, !tbaa !16
  %45 = ptrtoint ptr %41 to i64
  %46 = ptrtoint ptr %44 to i64
  %47 = sub i64 %45, %46
  %48 = trunc i64 %47 to i32
  call void @writeout(ptr noundef %35, ptr noundef %38, i32 noundef %48)
  %49 = load ptr, ptr %2, align 8, !tbaa !14
  %50 = getelementptr inbounds nuw %struct.AVIOContext, ptr %49, i32 0, i32 17
  %51 = load ptr, ptr %50, align 8, !tbaa !36
  %52 = icmp ne ptr %51, null
  br i1 %52, label %53, label %81

53:                                               ; preds = %34
  %54 = load ptr, ptr %2, align 8, !tbaa !14
  %55 = getelementptr inbounds nuw %struct.AVIOContext, ptr %54, i32 0, i32 17
  %56 = load ptr, ptr %55, align 8, !tbaa !36
  %57 = load ptr, ptr %2, align 8, !tbaa !14
  %58 = getelementptr inbounds nuw %struct.AVIOContext, ptr %57, i32 0, i32 15
  %59 = load i64, ptr %58, align 8, !tbaa !51
  %60 = load ptr, ptr %2, align 8, !tbaa !14
  %61 = getelementptr inbounds nuw %struct.AVIOContext, ptr %60, i32 0, i32 16
  %62 = load ptr, ptr %61, align 8, !tbaa !52
  %63 = load ptr, ptr %2, align 8, !tbaa !14
  %64 = getelementptr inbounds nuw %struct.AVIOContext, ptr %63, i32 0, i32 26
  %65 = load ptr, ptr %64, align 8, !tbaa !24
  %66 = load ptr, ptr %2, align 8, !tbaa !14
  %67 = getelementptr inbounds nuw %struct.AVIOContext, ptr %66, i32 0, i32 16
  %68 = load ptr, ptr %67, align 8, !tbaa !52
  %69 = ptrtoint ptr %65 to i64
  %70 = ptrtoint ptr %68 to i64
  %71 = sub i64 %69, %70
  %72 = trunc i64 %71 to i32
  %73 = call i64 %56(i64 noundef %59, ptr noundef %62, i32 noundef %72)
  %74 = load ptr, ptr %2, align 8, !tbaa !14
  %75 = getelementptr inbounds nuw %struct.AVIOContext, ptr %74, i32 0, i32 15
  store i64 %73, ptr %75, align 8, !tbaa !51
  %76 = load ptr, ptr %2, align 8, !tbaa !14
  %77 = getelementptr inbounds nuw %struct.AVIOContext, ptr %76, i32 0, i32 1
  %78 = load ptr, ptr %77, align 8, !tbaa !16
  %79 = load ptr, ptr %2, align 8, !tbaa !14
  %80 = getelementptr inbounds nuw %struct.AVIOContext, ptr %79, i32 0, i32 16
  store ptr %78, ptr %80, align 8, !tbaa !52
  br label %81

81:                                               ; preds = %53, %34
  br label %82

82:                                               ; preds = %81, %26, %18
  %83 = load ptr, ptr %2, align 8, !tbaa !14
  %84 = getelementptr inbounds nuw %struct.AVIOContext, ptr %83, i32 0, i32 1
  %85 = load ptr, ptr %84, align 8, !tbaa !16
  %86 = load ptr, ptr %2, align 8, !tbaa !14
  %87 = getelementptr inbounds nuw %struct.AVIOContext, ptr %86, i32 0, i32 26
  store ptr %85, ptr %87, align 8, !tbaa !24
  %88 = load ptr, ptr %2, align 8, !tbaa !14
  %89 = getelementptr inbounds nuw %struct.AVIOContext, ptr %88, i32 0, i32 3
  store ptr %85, ptr %89, align 8, !tbaa !23
  %90 = load ptr, ptr %2, align 8, !tbaa !14
  %91 = getelementptr inbounds nuw %struct.AVIOContext, ptr %90, i32 0, i32 12
  %92 = load i32, ptr %91, align 8, !tbaa !46
  %93 = icmp ne i32 %92, 0
  br i1 %93, label %100, label %94

94:                                               ; preds = %82
  %95 = load ptr, ptr %2, align 8, !tbaa !14
  %96 = getelementptr inbounds nuw %struct.AVIOContext, ptr %95, i32 0, i32 1
  %97 = load ptr, ptr %96, align 8, !tbaa !16
  %98 = load ptr, ptr %2, align 8, !tbaa !14
  %99 = getelementptr inbounds nuw %struct.AVIOContext, ptr %98, i32 0, i32 4
  store ptr %97, ptr %99, align 8, !tbaa !38
  br label %100

100:                                              ; preds = %94, %82
  ret void
}