; Function Attrs: nounwind uwtable
define internal fastcc void @flush_buffer(ptr noundef captures(none) %0) unnamed_addr #3 {
  %2 = getelementptr inbounds nuw i8, ptr %0, i64 24
  %3 = load ptr, ptr %2, align 8, !tbaa !16
  %4 = getelementptr inbounds nuw i8, ptr %0, i64 184
  %5 = load ptr, ptr %4, align 8, !tbaa !17
  %6 = icmp ugt ptr %3, %5
  %. = select i1 %6, ptr %3, ptr %5
  store ptr %., ptr %4, align 8, !tbaa !17
  %7 = getelementptr inbounds nuw i8, ptr %0, i64 88
  %8 = load i32, ptr %7, align 8, !tbaa !20
  %.not = icmp eq i32 %8, 0
  %9 = getelementptr inbounds nuw i8, ptr %0, i64 8
  %10 = load ptr, ptr %9, align 8, !tbaa !4
  br i1 %.not, label %.thread, label %11

.thread:                                          ; preds = %1
  store ptr %10, ptr %4, align 8, !tbaa !17
  store ptr %10, ptr %2, align 8, !tbaa !16
  br label %81

11:                                               ; preds = %1
  %12 = icmp ugt ptr %., %10
  br i1 %12, label %13, label %79

13:                                               ; preds = %11
  %14 = ptrtoint ptr %. to i64
  %15 = ptrtoint ptr %10 to i64
  %16 = sub i64 %14, %15
  %17 = trunc i64 %16 to i32
  %18 = getelementptr inbounds nuw i8, ptr %0, i64 84
  %19 = load i32, ptr %18, align 4, !tbaa !34
  %.not.i = icmp eq i32 %19, 0
  br i1 %.not.i, label %20, label %53

20:                                               ; preds = %13
  %21 = getelementptr inbounds nuw i8, ptr %0, i64 168
  %22 = load ptr, ptr %21, align 8, !tbaa !28
  %.not37.i = icmp eq ptr %22, null
  br i1 %.not37.i, label %31, label %23

23:                                               ; preds = %20
  %24 = getelementptr inbounds nuw i8, ptr %0, i64 40
  %25 = load ptr, ptr %24, align 8, !tbaa !18
  %26 = getelementptr inbounds nuw i8, ptr %0, i64 220
  %27 = load i32, ptr %26, align 4, !tbaa !30
  %28 = getelementptr inbounds nuw i8, ptr %0, i64 224
  %29 = load i64, ptr %28, align 8, !tbaa !31
  %30 = tail call i32 %22(ptr noundef %25, ptr noundef %10, i32 noundef %17, i32 noundef %27, i64 noundef %29) #14
  br label %38

31:                                               ; preds = %20
  %32 = getelementptr inbounds nuw i8, ptr %0, i64 56
  %33 = load ptr, ptr %32, align 8, !tbaa !21
  %.not38.i = icmp eq ptr %33, null
  br i1 %.not38.i, label %.thread.i, label %34

34:                                               ; preds = %31
  %35 = getelementptr inbounds nuw i8, ptr %0, i64 40
  %36 = load ptr, ptr %35, align 8, !tbaa !18
  %37 = tail call i32 %33(ptr noundef %36, ptr noundef %10, i32 noundef %17) #14
  br label %38

38:                                               ; preds = %34, %23
  %.0.i = phi i32 [ %30, %23 ], [ %37, %34 ]
  %39 = icmp slt i32 %.0.i, 0
  br i1 %39, label %40, label %.thread.i

40:                                               ; preds = %38
  store i32 %.0.i, ptr %18, align 4, !tbaa !34
  br label %53

.thread.i:                                        ; preds = %38, %31
  %sext = shl i64 %16, 32
  %41 = ashr exact i64 %sext, 32
  %42 = getelementptr inbounds nuw i8, ptr %0, i64 248
  %43 = load i64, ptr %42, align 8, !tbaa !35
  %44 = add nsw i64 %43, %41
  store i64 %44, ptr %42, align 8, !tbaa !35
  %45 = getelementptr inbounds nuw i8, ptr %0, i64 200
  store i64 %44, ptr %45, align 8, !tbaa !36
  %46 = getelementptr inbounds nuw i8, ptr %0, i64 72
  %47 = load i64, ptr %46, align 8, !tbaa !27
  %48 = add nsw i64 %47, %41
  %49 = getelementptr inbounds nuw i8, ptr %0, i64 272
  %50 = load i64, ptr %49, align 8, !tbaa !37
  %51 = icmp sgt i64 %48, %50
  br i1 %51, label %52, label %53

52:                                               ; preds = %.thread.i
  store i64 %48, ptr %49, align 8, !tbaa !37
  br label %53

53:                                               ; preds = %52, %.thread.i, %40, %13
  %54 = getelementptr inbounds nuw i8, ptr %0, i64 220
  %55 = load i32, ptr %54, align 4, !tbaa !30
  %.off.i = add i32 %55, -1
  %switch.i = icmp ult i32 %.off.i, 2
  br i1 %switch.i, label %56, label %writeout.exit

56:                                               ; preds = %53
  store i32 3, ptr %54, align 4, !tbaa !30
  br label %writeout.exit

writeout.exit:                                    ; preds = %53, %56
  %57 = getelementptr inbounds nuw i8, ptr %0, i64 224
  store i64 -9223372036854775808, ptr %57, align 8, !tbaa !31
  %58 = getelementptr inbounds nuw i8, ptr %0, i64 260
  %59 = load i32, ptr %58, align 4, !tbaa !38
  %60 = add nsw i32 %59, 1
  store i32 %60, ptr %58, align 4, !tbaa !38
  %sext34 = shl i64 %16, 32
  %61 = ashr exact i64 %sext34, 32
  %62 = getelementptr inbounds nuw i8, ptr %0, i64 72
  %63 = load i64, ptr %62, align 8, !tbaa !27
  %64 = add nsw i64 %63, %61
  store i64 %64, ptr %62, align 8, !tbaa !27
  %65 = getelementptr inbounds nuw i8, ptr %0, i64 120
  %66 = load ptr, ptr %65, align 8, !tbaa !39
  %.not31 = icmp eq ptr %66, null
  br i1 %.not31, label %writeout.exit._crit_edge, label %67

writeout.exit._crit_edge:                         ; preds = %writeout.exit
  %.pre = load ptr, ptr %9, align 8, !tbaa !4
  br label %79

67:                                               ; preds = %writeout.exit
  %68 = getelementptr inbounds nuw i8, ptr %0, i64 104
  %69 = load i64, ptr %68, align 8, !tbaa !40
  %70 = getelementptr inbounds nuw i8, ptr %0, i64 112
  %71 = load ptr, ptr %70, align 8, !tbaa !41
  %72 = load ptr, ptr %4, align 8, !tbaa !17
  %73 = ptrtoint ptr %72 to i64
  %74 = ptrtoint ptr %71 to i64
  %75 = sub i64 %73, %74
  %76 = trunc i64 %75 to i32
  %77 = tail call i64 %66(i64 noundef %69, ptr noundef %71, i32 noundef %76) #14
  store i64 %77, ptr %68, align 8, !tbaa !40
  %78 = load ptr, ptr %9, align 8, !tbaa !4
  store ptr %78, ptr %70, align 8, !tbaa !41
  br label %79

79:                                               ; preds = %writeout.exit._crit_edge, %67, %11
  %80 = phi ptr [ %.pre, %writeout.exit._crit_edge ], [ %78, %67 ], [ %10, %11 ]
  %.pr = load i32, ptr %7, align 8, !tbaa !20
  store ptr %80, ptr %4, align 8, !tbaa !17
  store ptr %80, ptr %2, align 8, !tbaa !16
  %.not32 = icmp eq i32 %.pr, 0
  br i1 %.not32, label %81, label %84

81:                                               ; preds = %.thread, %79
  %82 = phi ptr [ %10, %.thread ], [ %80, %79 ]
  %83 = getelementptr inbounds nuw i8, ptr %0, i64 32
  store ptr %82, ptr %83, align 8, !tbaa !19
  br label %84

84:                                               ; preds = %81, %79
  ret void
}